; Function Attrs: mustprogress uwtable
define internal fastcc void @_ZL15formated_outputRSoPKci(ptr noundef nonnull align 8 dereferenceable(8) %0, ptr noundef %1, i32 noundef %2) unnamed_addr #6 {
  %4 = tail call noundef nonnull align 8 dereferenceable(8) ptr @_ZSt16__ostream_insertIcSt11char_traitsIcEERSt13basic_ostreamIT_T0_ES6_PKS3_l(ptr noundef nonnull align 8 dereferenceable(8) %0, ptr noundef nonnull @.str.62, i64 noundef 4)
  %.not.i = icmp eq ptr %1, null
  br i1 %.not.i, label %5, label %13

5:                                                ; preds = %3
  %6 = load ptr, ptr %0, align 8, !tbaa !19
  %7 = getelementptr i8, ptr %6, i64 -24
  %8 = load i64, ptr %7, align 8
  %9 = getelementptr inbounds i8, ptr %0, i64 %8
  %10 = getelementptr inbounds nuw i8, ptr %9, i64 32
  %11 = load i32, ptr %10, align 8, !tbaa !92
  %12 = or i32 %11, 1
  tail call void @_ZNSt9basic_iosIcSt11char_traitsIcEE5clearESt12_Ios_Iostate(ptr noundef nonnull align 8 dereferenceable(264) %9, i32 noundef %12)
  br label %_ZStlsISt11char_traitsIcEERSt13basic_ostreamIcT_ES5_PKc.exit

13:                                               ; preds = %3
  %14 = tail call noundef i64 @strlen(ptr noundef nonnull dereferenceable(1) %1) #19
  %15 = tail call noundef nonnull align 8 dereferenceable(8) ptr @_ZSt16__ostream_insertIcSt11char_traitsIcEERSt13basic_ostreamIT_T0_ES6_PKS3_l(ptr noundef nonnull align 8 dereferenceable(8) %0, ptr noundef nonnull %1, i64 noundef %14)
  br label %_ZStlsISt11char_traitsIcEERSt13basic_ostreamIcT_ES5_PKc.exit

_ZStlsISt11char_traitsIcEERSt13basic_ostreamIcT_ES5_PKc.exit: ; preds = %5, %13
  %16 = tail call noundef nonnull align 8 dereferenceable(8) ptr @_ZNSolsEi(ptr noundef nonnull align 8 dereferenceable(8) %0, i32 noundef %2)
  %17 = load ptr, ptr %16, align 8, !tbaa !19
  %18 = getelementptr i8, ptr %17, i64 -24
  %19 = load i64, ptr %18, align 8
  %20 = getelementptr inbounds i8, ptr %16, i64 %19
  %21 = getelementptr inbounds nuw i8, ptr %20, i64 240
  %22 = load ptr, ptr %21, align 8, !tbaa !70
  %.not.i.i.i = icmp eq ptr %22, null
  br i1 %.not.i.i.i, label %23, label %_ZSt13__check_facetISt5ctypeIcEERKT_PS3_.exit.i.i

23:                                               ; preds = %_ZStlsISt11char_traitsIcEERSt13basic_ostreamIcT_ES5_PKc.exit
  tail call void @_ZSt16__throw_bad_castv() #20
  unreachable

_ZSt13__check_facetISt5ctypeIcEERKT_PS3_.exit.i.i: ; preds = %_ZStlsISt11char_traitsIcEERSt13basic_ostreamIcT_ES5_PKc.exit
  %24 = getelementptr inbounds nuw i8, ptr %22, i64 56
  %25 = load i8, ptr %24, align 8, !tbaa !85
  %.not.i1.i.i = icmp eq i8 %25, 0
  br i1 %.not.i1.i.i, label %29, label %26

26:                                               ; preds = %_ZSt13__check_facetISt5ctypeIcEERKT_PS3_.exit.i.i
  %27 = getelementptr inbounds nuw i8, ptr %22, i64 67
  %28 = load i8, ptr %27, align 1, !tbaa !90
  br label %_ZSt4endlIcSt11char_traitsIcEERSt13basic_ostreamIT_T0_ES6_.exit

29:                                               ; preds = %_ZSt13__check_facetISt5ctypeIcEERKT_PS3_.exit.i.i
  tail call void @_ZNKSt5ctypeIcE13_M_widen_initEv(ptr noundef nonnull align 8 dereferenceable(570) %22)
  %30 = load ptr, ptr %22, align 8, !tbaa !19
  %31 = getelementptr inbounds nuw i8, ptr %30, i64 48
  %32 = load ptr, ptr %31, align 8
  %33 = tail call noundef signext i8 %32(ptr noundef nonnull align 8 dereferenceable(570) %22, i8 noundef signext 10)
  br label %_ZSt4endlIcSt11char_traitsIcEERSt13basic_ostreamIT_T0_ES6_.exit

_ZSt4endlIcSt11char_traitsIcEERSt13basic_ostreamIT_T0_ES6_.exit: ; preds = %26, %29
  %.0.i.i.i = phi i8 [ %28, %26 ], [ %33, %29 ]
  %34 = tail call noundef nonnull align 8 dereferenceable(8) ptr @_ZNSo3putEc(ptr noundef nonnull align 8 dereferenceable(8) %16, i8 noundef signext %.0.i.i.i)
  %35 = tail call noundef nonnull align 8 dereferenceable(8) ptr @_ZNSo5flushEv(ptr noundef nonnull align 8 dereferenceable(8) %34)
  ret void
}